target datalayout = "e-m:e-p270:32:32-p271:32:32-p272:64:64-i64:64-i128:128-f80:128-n8:16:32:64-S128"
target triple = "x86_64-pc-linux-gnu"

%union.pthread_mutex_t = type { %struct.__pthread_mutex_s }
%struct.__pthread_mutex_s = type { i32, i32, i32, i32, i32, i16, i16, %struct.__pthread_internal_list }
%struct.__pthread_internal_list = type { ptr, ptr }
%struct.node_features_ops = type { ptr, ptr, ptr, ptr, ptr, ptr, ptr, ptr, ptr, ptr, ptr, ptr, ptr, ptr, ptr, ptr, ptr }
%struct.timeval = type { i64, i64 }

@g_context_lock = internal global %union.pthread_mutex_t zeroinitializer, align 8
@.str.1 = private unnamed_addr constant [29 x i8] c"%s: pthread_mutex_lock(): %m\00", align 1
@g_context_cnt = internal global i32 -1, align 4
@ops = internal global ptr null, align 8
@.str.7 = private unnamed_addr constant [31 x i8] c"%s: pthread_mutex_unlock(): %m\00", align 1
@__func__.node_features_g_user_update = private unnamed_addr constant [28 x i8] c"node_features_g_user_update\00", align 1

; Function Attrs: nounwind uwtable
define dso_local zeroext i1 @node_features_g_user_update(i32 noundef %0) #0 {
  %2 = alloca i32, align 4
  %3 = alloca %struct.timeval, align 8
  %4 = alloca %struct.timeval, align 8
  %5 = alloca [20 x i8], align 16
  %6 = alloca i64, align 8
  %7 = alloca i8, align 1
  %8 = alloca i32, align 4
  %9 = alloca i32, align 4
  %10 = alloca i32, align 4
  store i32 %0, ptr %2, align 4
  call void @llvm.lifetime.start.p0(i64 16, ptr %3) #7
  call void @llvm.lifetime.start.p0(i64 16, ptr %4) #7
  call void @llvm.lifetime.start.p0(i64 20, ptr %5) #7
  call void @llvm.memset.p0.i64(ptr align 16 %5, i8 0, i64 20, i1 false)
  call void @llvm.lifetime.start.p0(i64 8, ptr %6) #7
  call void @llvm.lifetime.start.p0(i64 1, ptr %7) #7
  store i8 1, ptr %7, align 1
  call void @llvm.lifetime.start.p0(i64 4, ptr %8) #7
  %11 = call i32 @gettimeofday(ptr noundef %3, ptr noundef null) #7
  br label %12

12:                                               ; preds = %1
  call void @llvm.lifetime.start.p0(i64 4, ptr %9) #7
  %13 = call i32 @pthread_mutex_lock(ptr noundef @g_context_lock) #7
  store i32 %13, ptr %9, align 4
  %14 = load i32, ptr %9, align 4
  %15 = icmp ne i32 %14, 0
  br i1 %15, label %16, label %19

16:                                               ; preds = %12
  %17 = load i32, ptr %9, align 4
  %18 = call ptr @__errno_location() #8
  store i32 %17, ptr %18, align 4
  call void (ptr, ...) @fatal_abort(ptr noundef @.str.1, ptr noundef @__func__.node_features_g_user_update) #9
  unreachable

19:                                               ; preds = %12
  call void @llvm.lifetime.end.p0(i64 4, ptr %9) #7
  br label %20

20:                                               ; preds = %19
  br label %21

21:                                               ; preds = %20
  store i32 0, ptr %8, align 4
  br label %22

22:                                               ; preds = %43, %21
  %23 = load i32, ptr %8, align 4
  %24 = load i32, ptr @g_context_cnt, align 4
  %25 = icmp slt i32 %23, %24
  br i1 %25, label %26, label %31

26:                                               ; preds = %22
  %27 = load i8, ptr %7, align 1, !range !12, !noundef !13
  %28 = trunc i8 %27 to i1
  %29 = zext i1 %28 to i32
  %30 = icmp eq i32 %29, 1
  br label %31

31:                                               ; preds = %26, %22
  %32 = phi i1 [ false, %22 ], [ %30, %26 ]
  br i1 %32, label %33, label %46

33:                                               ; preds = %31
  %34 = load ptr, ptr @ops, align 8
  %35 = load i32, ptr %8, align 4
  %36 = sext i32 %35 to i64
  %37 = getelementptr inbounds %struct.node_features_ops, ptr %34, i64 %36
  %38 = getelementptr inbounds nuw %struct.node_features_ops, ptr %37, i32 0, i32 15
  %39 = load ptr, ptr %38, align 8
  %40 = load i32, ptr %2, align 4
  %41 = call zeroext i1 %39(i32 noundef %40)
  %42 = zext i1 %41 to i8
  store i8 %42, ptr %7, align 1
  br label %43

43:                                               ; preds = %33
  %44 = load i32, ptr %8, align 4
  %45 = add nsw i32 %44, 1
  store i32 %45, ptr %8, align 4
  br label %22, !llvm.loop !28

46:                                               ; preds = %31
  br label %47

47:                                               ; preds = %46
  call void @llvm.lifetime.start.p0(i64 4, ptr %10) #7
  %48 = call i32 @pthread_mutex_unlock(ptr noundef @g_context_lock) #7
  store i32 %48, ptr %10, align 4
  %49 = load i32, ptr %10, align 4
  %50 = icmp ne i32 %49, 0
  br i1 %50, label %51, label %54

51:                                               ; preds = %47
  %52 = load i32, ptr %10, align 4
  %53 = call ptr @__errno_location() #8
  store i32 %52, ptr %53, align 4
  call void (ptr, ...) @fatal_abort(ptr noundef @.str.7, ptr noundef @__func__.node_features_g_user_update) #9
  unreachable

54:                                               ; preds = %47
  call void @llvm.lifetime.end.p0(i64 4, ptr %10) #7
  br label %55

55:                                               ; preds = %54
  br label %56

56:                                               ; preds = %55
  br label %57

57:                                               ; preds = %56
  %58 = call i32 @gettimeofday(ptr noundef %4, ptr noundef null) #7
  %59 = getelementptr inbounds [20 x i8], ptr %5, i64 0, i64 0
  call void @slurm_diff_tv_str(ptr noundef %3, ptr noundef %4, ptr noundef %59, i32 noundef 20, ptr noundef @__func__.node_features_g_user_update, i64 noundef 0, ptr noundef %6)
  br label %60

60:                                               ; preds = %57
  br label %61

61:                                               ; preds = %60
  %62 = load i8, ptr %7, align 1, !range !12, !noundef !13
  %63 = trunc i8 %62 to i1
  call void @llvm.lifetime.end.p0(i64 4, ptr %8) #7
  call void @llvm.lifetime.end.p0(i64 1, ptr %7) #7
  call void @llvm.lifetime.end.p0(i64 8, ptr %6) #7
  call void @llvm.lifetime.end.p0(i64 20, ptr %5) #7
  call void @llvm.lifetime.end.p0(i64 16, ptr %4) #7
  call void @llvm.lifetime.end.p0(i64 16, ptr %3) #7
  ret i1 %63
}