; Function Attrs: nounwind uwtable
define dso_local zeroext i1 @node_features_g_user_update(i32 noundef %0) local_unnamed_addr #0 {
  %2 = alloca %struct.timeval, align 8
  %3 = alloca %struct.timeval, align 8
  %4 = alloca [20 x i8], align 16
  %5 = alloca i64, align 8
  call void @llvm.lifetime.start.p0(i64 16, ptr nonnull %2) #9
  call void @llvm.lifetime.start.p0(i64 16, ptr nonnull %3) #9
  call void @llvm.lifetime.start.p0(i64 20, ptr nonnull %4) #9
  call void @llvm.memset.p0.i64(ptr noundef nonnull align 16 dereferenceable(20) %4, i8 0, i64 20, i1 false)
  call void @llvm.lifetime.start.p0(i64 8, ptr nonnull %5) #9
  %6 = call i32 @gettimeofday(ptr noundef nonnull %2, ptr noundef null) #9
  %7 = tail call i32 @pthread_mutex_lock(ptr noundef nonnull @g_context_lock) #9
  %.not = icmp eq i32 %7, 0
  br i1 %.not, label %.preheader, label %10

.preheader:                                       ; preds = %1
  %8 = load i32, ptr @g_context_cnt, align 4
  %9 = icmp sgt i32 %8, 0
  br i1 %9, label %.lr.ph, label %._crit_edge

10:                                               ; preds = %1
  %11 = tail call ptr @__errno_location() #10
  store i32 %7, ptr %11, align 4
  tail call void (ptr, ...) @fatal_abort(ptr noundef nonnull @.str.1, ptr noundef nonnull @__func__.node_features_g_user_update) #11
  unreachable

.lr.ph:                                           ; preds = %.preheader, %.lr.ph
  %indvars.iv = phi i64 [ %indvars.iv.next, %.lr.ph ], [ 0, %.preheader ]
  %12 = load ptr, ptr @ops, align 8
  %13 = getelementptr inbounds nuw %struct.node_features_ops, ptr %12, i64 %indvars.iv, i32 15
  %14 = load ptr, ptr %13, align 8
  %15 = tail call zeroext i1 %14(i32 noundef %0) #9
  %indvars.iv.next = add nuw nsw i64 %indvars.iv, 1
  %16 = load i32, ptr @g_context_cnt, align 4
  %17 = sext i32 %16 to i64
  %18 = icmp slt i64 %indvars.iv.next, %17
  %19 = select i1 %18, i1 %15, i1 false
  br i1 %19, label %.lr.ph, label %._crit_edge, !llvm.loop !26

._crit_edge:                                      ; preds = %.lr.ph, %.preheader
  %.0.lcssa = phi i1 [ true, %.preheader ], [ %15, %.lr.ph ]
  %20 = tail call i32 @pthread_mutex_unlock(ptr noundef nonnull @g_context_lock) #9
  %.not13 = icmp eq i32 %20, 0
  br i1 %.not13, label %23, label %21

21:                                               ; preds = %._crit_edge
  %22 = tail call ptr @__errno_location() #10
  store i32 %20, ptr %22, align 4
  tail call void (ptr, ...) @fatal_abort(ptr noundef nonnull @.str.7, ptr noundef nonnull @__func__.node_features_g_user_update) #11
  unreachable

23:                                               ; preds = %._crit_edge
  %24 = call i32 @gettimeofday(ptr noundef nonnull %3, ptr noundef null) #9
  call void @slurm_diff_tv_str(ptr noundef nonnull %2, ptr noundef nonnull %3, ptr noundef nonnull %4, i32 noundef 20, ptr noundef nonnull @__func__.node_features_g_user_update, i64 noundef 0, ptr noundef nonnull %5) #9
  call void @llvm.lifetime.end.p0(i64 8, ptr nonnull %5) #9
  call void @llvm.lifetime.end.p0(i64 20, ptr nonnull %4) #9
  call void @llvm.lifetime.end.p0(i64 16, ptr nonnull %3) #9
  call void @llvm.lifetime.end.p0(i64 16, ptr nonnull %2) #9
  ret i1 %.0.lcssa
}